target datalayout = "e-m:e-p270:32:32-p271:32:32-p272:64:64-i64:64-i128:128-f80:128-n8:16:32:64-S128"
target triple = "x86_64-unknown-linux-gnu"

%"class.QuantLib::CurveState" = type { ptr, i64, %"class.std::vector", %"class.std::vector" }
%"class.std::vector" = type { %"struct.std::_Vector_base" }
%"struct.std::_Vector_base" = type { %"struct.std::_Vector_base<double, std::allocator<double>>::_Vector_impl" }
%"struct.std::_Vector_base<double, std::allocator<double>>::_Vector_impl" = type { %"struct.std::_Vector_base<double, std::allocator<double>>::_Vector_impl_data" }
%"struct.std::_Vector_base<double, std::allocator<double>>::_Vector_impl_data" = type { ptr, ptr, ptr }

; Function Attrs: mustprogress nounwind uwtable
define linkonce_odr noundef nonnull align 8 dereferenceable(8) ptr @_ZNKSt6vectorIdSaIdEEixEm(ptr noundef nonnull align 8 dereferenceable(24) %this, i64 noundef %__n) #4 comdat align 2 {
entry:
  %this.addr = alloca ptr, align 8
  %__n.addr = alloca i64, align 8
  store ptr %this, ptr %this.addr, align 8, !tbaa !3
  store i64 %__n, ptr %__n.addr, align 8, !tbaa !7
  %this1 = load ptr, ptr %this.addr, align 8
  %_M_impl = getelementptr inbounds nuw %"struct.std::_Vector_base", ptr %this1, i32 0, i32 0
  %_M_start = getelementptr inbounds nuw %"struct.std::_Vector_base<double, std::allocator<double>>::_Vector_impl_data", ptr %_M_impl, i32 0, i32 0
  %0 = load ptr, ptr %_M_start, align 8, !tbaa !15
  %1 = load i64, ptr %__n.addr, align 8, !tbaa !7
  %add.ptr = getelementptr inbounds nuw double, ptr %0, i64 %1
  ret ptr %add.ptr
}

; Function Attrs: mustprogress nounwind uwtable
define linkonce_odr noundef nonnull align 8 dereferenceable(24) ptr @_ZNK8QuantLib10CurveState8rateTausEv(ptr noundef nonnull align 8 dereferenceable(64) %this) #4 comdat align 2 {
entry:
  %this.addr = alloca ptr, align 8
  store ptr %this, ptr %this.addr, align 8, !tbaa !3
  %this1 = load ptr, ptr %this.addr, align 8
  %rateTaus_ = getelementptr inbounds nuw %"class.QuantLib::CurveState", ptr %this1, i32 0, i32 3
  ret ptr %rateTaus_
}

; Function Attrs: mustprogress uwtable
define noundef double @_ZN8QuantLib19SwapForwardMappings7annuityERKNS_10CurveStateEmmm(ptr noundef nonnull align 8 dereferenceable(64) %cs, i64 noundef %startIndex, i64 noundef %endIndex, i64 noundef %numeraireIndex) #3 align 2 {
entry:
  %cs.addr = alloca ptr, align 8
  %startIndex.addr = alloca i64, align 8
  %endIndex.addr = alloca i64, align 8
  %numeraireIndex.addr = alloca i64, align 8
  %annuity = alloca double, align 8
  %i = alloca i64, align 8
  store ptr %cs, ptr %cs.addr, align 8, !tbaa !3
  store i64 %startIndex, ptr %startIndex.addr, align 8, !tbaa !7
  store i64 %endIndex, ptr %endIndex.addr, align 8, !tbaa !7
  store i64 %numeraireIndex, ptr %numeraireIndex.addr, align 8, !tbaa !7
  call void @llvm.lifetime.start.p0(i64 8, ptr %annuity) #16
  store double 0.000000e+00, ptr %annuity, align 8, !tbaa !9
  call void @llvm.lifetime.start.p0(i64 8, ptr %i) #16
  %0 = load i64, ptr %startIndex.addr, align 8, !tbaa !7
  store i64 %0, ptr %i, align 8, !tbaa !7
  br label %for.cond

for.cond:                                         ; preds = %for.inc, %entry
  %1 = load i64, ptr %i, align 8, !tbaa !7
  %2 = load i64, ptr %endIndex.addr, align 8, !tbaa !7
  %cmp = icmp ult i64 %1, %2
  br i1 %cmp, label %for.body, label %for.cond.cleanup

for.cond.cleanup:                                 ; preds = %for.cond
  call void @llvm.lifetime.end.p0(i64 8, ptr %i) #16
  br label %for.end

for.body:                                         ; preds = %for.cond
  %3 = load ptr, ptr %cs.addr, align 8, !tbaa !3
  %call = call noundef nonnull align 8 dereferenceable(24) ptr @_ZNK8QuantLib10CurveState8rateTausEv(ptr noundef nonnull align 8 dereferenceable(64) %3)
  %4 = load i64, ptr %i, align 8, !tbaa !7
  %call1 = call noundef nonnull align 8 dereferenceable(8) ptr @_ZNKSt6vectorIdSaIdEEixEm(ptr noundef nonnull align 8 dereferenceable(24) %call, i64 noundef %4) #16
  %5 = load double, ptr %call1, align 8, !tbaa !9
  %6 = load ptr, ptr %cs.addr, align 8, !tbaa !3
  %7 = load i64, ptr %i, align 8, !tbaa !7
  %add = add i64 %7, 1
  %8 = load i64, ptr %numeraireIndex.addr, align 8, !tbaa !7
  %vtable = load ptr, ptr %6, align 8, !tbaa !11
  %vfn = getelementptr inbounds ptr, ptr %vtable, i64 2
  %9 = load ptr, ptr %vfn, align 8
  %call2 = call noundef double %9(ptr noundef nonnull align 8 dereferenceable(64) %6, i64 noundef %add, i64 noundef %8)
  %10 = load double, ptr %annuity, align 8, !tbaa !9
  %11 = call double @llvm.fmuladd.f64(double %5, double %call2, double %10)
  store double %11, ptr %annuity, align 8, !tbaa !9
  br label %for.inc

for.inc:                                          ; preds = %for.body
  %12 = load i64, ptr %i, align 8, !tbaa !7
  %inc = add i64 %12, 1
  store i64 %inc, ptr %i, align 8, !tbaa !7
  br label %for.cond, !llvm.loop !13

for.end:                                          ; preds = %for.cond.cleanup
  %13 = load double, ptr %annuity, align 8, !tbaa !9
  call void @llvm.lifetime.end.p0(i64 8, ptr %annuity) #16
  ret double %13
}

; Function Attrs: mustprogress uwtable
define noundef double @_ZN8QuantLib19SwapForwardMappings14swapDerivativeERKNS_10CurveStateEmmm(ptr noundef nonnull align 8 dereferenceable(64) %cs, i64 noundef %startIndex, i64 noundef %endIndex, i64 noundef %forwardIndex) #3 align 2 {
entry:
  %retval = alloca double, align 8
  %cs.addr = alloca ptr, align 8
  %startIndex.addr = alloca i64, align 8
  %endIndex.addr = alloca i64, align 8
  %forwardIndex.addr = alloca i64, align 8
  %numerator = alloca double, align 8
  %swapAnnuity = alloca double, align 8
  %ratio = alloca double, align 8
  %part1 = alloca double, align 8
  %part2 = alloca double, align 8
  store ptr %cs, ptr %cs.addr, align 8, !tbaa !3
  store i64 %startIndex, ptr %startIndex.addr, align 8, !tbaa !7
  store i64 %endIndex, ptr %endIndex.addr, align 8, !tbaa !7
  store i64 %forwardIndex, ptr %forwardIndex.addr, align 8, !tbaa !7
  %0 = load i64, ptr %forwardIndex.addr, align 8, !tbaa !7
  %1 = load i64, ptr %startIndex.addr, align 8, !tbaa !7
  %cmp = icmp ult i64 %0, %1
  br i1 %cmp, label %if.then, label %if.end

if.then:                                          ; preds = %entry
  store double 0.000000e+00, ptr %retval, align 8
  br label %return

if.end:                                           ; preds = %entry
  %2 = load i64, ptr %forwardIndex.addr, align 8, !tbaa !7
  %3 = load i64, ptr %endIndex.addr, align 8, !tbaa !7
  %cmp1 = icmp uge i64 %2, %3
  br i1 %cmp1, label %if.then2, label %if.end3

if.then2:                                         ; preds = %if.end
  store double 0.000000e+00, ptr %retval, align 8
  br label %return

if.end3:                                          ; preds = %if.end
  call void @llvm.lifetime.start.p0(i64 8, ptr %numerator) #16
  %4 = load ptr, ptr %cs.addr, align 8, !tbaa !3
  %5 = load i64, ptr %startIndex.addr, align 8, !tbaa !7
  %6 = load i64, ptr %endIndex.addr, align 8, !tbaa !7
  %vtable = load ptr, ptr %4, align 8, !tbaa !11
  %vfn = getelementptr inbounds ptr, ptr %vtable, i64 2
  %7 = load ptr, ptr %vfn, align 8
  %call = call noundef double %7(ptr noundef nonnull align 8 dereferenceable(64) %4, i64 noundef %5, i64 noundef %6)
  %sub = fsub double %call, 1.000000e+00
  store double %sub, ptr %numerator, align 8, !tbaa !9
  call void @llvm.lifetime.start.p0(i64 8, ptr %swapAnnuity) #16
  %8 = load ptr, ptr %cs.addr, align 8, !tbaa !3
  %9 = load i64, ptr %startIndex.addr, align 8, !tbaa !7
  %10 = load i64, ptr %endIndex.addr, align 8, !tbaa !7
  %11 = load i64, ptr %endIndex.addr, align 8, !tbaa !7
  %call4 = call noundef double @_ZN8QuantLib19SwapForwardMappings7annuityERKNS_10CurveStateEmmm(ptr noundef nonnull align 8 dereferenceable(64) %8, i64 noundef %9, i64 noundef %10, i64 noundef %11)
  store double %call4, ptr %swapAnnuity, align 8, !tbaa !9
  call void @llvm.lifetime.start.p0(i64 8, ptr %ratio) #16
  %12 = load ptr, ptr %cs.addr, align 8, !tbaa !3
  %call5 = call noundef nonnull align 8 dereferenceable(24) ptr @_ZNK8QuantLib10CurveState8rateTausEv(ptr noundef nonnull align 8 dereferenceable(64) %12)
  %13 = load i64, ptr %forwardIndex.addr, align 8, !tbaa !7
  %call6 = call noundef nonnull align 8 dereferenceable(8) ptr @_ZNKSt6vectorIdSaIdEEixEm(ptr noundef nonnull align 8 dereferenceable(24) %call5, i64 noundef %13) #16
  %14 = load double, ptr %call6, align 8, !tbaa !9
  %15 = load ptr, ptr %cs.addr, align 8, !tbaa !3
  %call7 = call noundef nonnull align 8 dereferenceable(24) ptr @_ZNK8QuantLib10CurveState8rateTausEv(ptr noundef nonnull align 8 dereferenceable(64) %15)
  %16 = load i64, ptr %forwardIndex.addr, align 8, !tbaa !7
  %call8 = call noundef nonnull align 8 dereferenceable(8) ptr @_ZNKSt6vectorIdSaIdEEixEm(ptr noundef nonnull align 8 dereferenceable(24) %call7, i64 noundef %16) #16
  %17 = load double, ptr %call8, align 8, !tbaa !9
  %18 = load ptr, ptr %cs.addr, align 8, !tbaa !3
  %19 = load i64, ptr %forwardIndex.addr, align 8, !tbaa !7
  %vtable9 = load ptr, ptr %18, align 8, !tbaa !11
  %vfn10 = getelementptr inbounds ptr, ptr %vtable9, i64 3
  %20 = load ptr, ptr %vfn10, align 8
  %call11 = call noundef double %20(ptr noundef nonnull align 8 dereferenceable(64) %18, i64 noundef %19)
  %21 = call double @llvm.fmuladd.f64(double %17, double %call11, double 1.000000e+00)
  %div = fdiv double %14, %21
  store double %div, ptr %ratio, align 8, !tbaa !9
  call void @llvm.lifetime.start.p0(i64 8, ptr %part1) #16
  %22 = load double, ptr %ratio, align 8, !tbaa !9
  %23 = load double, ptr %numerator, align 8, !tbaa !9
  %add = fadd double %23, 1.000000e+00
  %mul = fmul double %22, %add
  %24 = load double, ptr %swapAnnuity, align 8, !tbaa !9
  %div12 = fdiv double %mul, %24
  store double %div12, ptr %part1, align 8, !tbaa !9
  call void @llvm.lifetime.start.p0(i64 8, ptr %part2) #16
  %25 = load double, ptr %numerator, align 8, !tbaa !9
  %26 = load double, ptr %swapAnnuity, align 8, !tbaa !9
  %27 = load double, ptr %swapAnnuity, align 8, !tbaa !9
  %mul13 = fmul double %26, %27
  %div14 = fdiv double %25, %mul13
  store double %div14, ptr %part2, align 8, !tbaa !9
  %28 = load i64, ptr %forwardIndex.addr, align 8, !tbaa !7
  %cmp15 = icmp uge i64 %28, 1
  br i1 %cmp15, label %if.then16, label %if.else

if.then16:                                        ; preds = %if.end3
  %29 = load double, ptr %ratio, align 8, !tbaa !9
  %30 = load ptr, ptr %cs.addr, align 8, !tbaa !3
  %31 = load i64, ptr %startIndex.addr, align 8, !tbaa !7
  %32 = load i64, ptr %forwardIndex.addr, align 8, !tbaa !7
  %33 = load i64, ptr %endIndex.addr, align 8, !tbaa !7
  %call17 = call noundef double @_ZN8QuantLib19SwapForwardMappings7annuityERKNS_10CurveStateEmmm(ptr noundef nonnull align 8 dereferenceable(64) %30, i64 noundef %31, i64 noundef %32, i64 noundef %33)
  %mul18 = fmul double %29, %call17
  %34 = load double, ptr %part2, align 8, !tbaa !9
  %mul19 = fmul double %34, %mul18
  store double %mul19, ptr %part2, align 8, !tbaa !9
  br label %if.end20

if.else:                                          ; preds = %if.end3
  store double 0.000000e+00, ptr %part2, align 8, !tbaa !9
  br label %if.end20

if.end20:                                         ; preds = %if.else, %if.then16
  %35 = load double, ptr %part1, align 8, !tbaa !9
  %36 = load double, ptr %part2, align 8, !tbaa !9
  %sub21 = fsub double %35, %36
  store double %sub21, ptr %retval, align 8
  call void @llvm.lifetime.end.p0(i64 8, ptr %part2) #16
  call void @llvm.lifetime.end.p0(i64 8, ptr %part1) #16
  call void @llvm.lifetime.end.p0(i64 8, ptr %ratio) #16
  call void @llvm.lifetime.end.p0(i64 8, ptr %swapAnnuity) #16
  call void @llvm.lifetime.end.p0(i64 8, ptr %numerator) #16
  br label %return

return:                                           ; preds = %if.end20, %if.then2, %if.then
  %37 = load double, ptr %retval, align 8
  ret double %37
}