; Function Attrs: mustprogress uwtable
define noundef double @_ZN8QuantLib19SwapForwardMappings14swapDerivativeERKNS_10CurveStateEmmm(ptr noundef nonnull align 8 dereferenceable(64) %cs, i64 noundef %startIndex, i64 noundef %endIndex, i64 noundef %forwardIndex) local_unnamed_addr #4 align 2 {
entry:
  %cmp = icmp uge i64 %forwardIndex, %startIndex
  %cmp1.not = icmp ult i64 %forwardIndex, %endIndex
  %or.cond = and i1 %cmp, %cmp1.not
  br i1 %or.cond, label %if.end3, label %return

if.end3:                                          ; preds = %entry
  %vtable = load ptr, ptr %cs, align 8, !tbaa !10
  %vfn = getelementptr inbounds i8, ptr %vtable, i64 16
  %0 = load ptr, ptr %vfn, align 8
  %call = tail call noundef double %0(ptr noundef nonnull align 8 dereferenceable(64) %cs, i64 noundef %startIndex, i64 noundef %endIndex)
  %rateTaus_.i.i = getelementptr inbounds nuw i8, ptr %cs, i64 40
  br label %for.body.i

for.body.i:                                       ; preds = %for.body.i, %if.end3
  %i.08.i = phi i64 [ %startIndex, %if.end3 ], [ %add.i, %for.body.i ]
  %annuity.07.i = phi double [ 0.000000e+00, %if.end3 ], [ %4, %for.body.i ]
  %1 = load ptr, ptr %rateTaus_.i.i, align 8, !tbaa !3
  %add.ptr.i.i = getelementptr inbounds nuw double, ptr %1, i64 %i.08.i
  %2 = load double, ptr %add.ptr.i.i, align 8, !tbaa !8
  %add.i = add nuw i64 %i.08.i, 1
  %vtable.i = load ptr, ptr %cs, align 8, !tbaa !10
  %vfn.i = getelementptr inbounds i8, ptr %vtable.i, i64 16
  %3 = load ptr, ptr %vfn.i, align 8
  %call2.i = tail call noundef double %3(ptr noundef nonnull align 8 dereferenceable(64) %cs, i64 noundef %add.i, i64 noundef %endIndex)
  %4 = tail call double @llvm.fmuladd.f64(double %2, double %call2.i, double %annuity.07.i)
  %exitcond.not.i = icmp eq i64 %add.i, %endIndex
  br i1 %exitcond.not.i, label %_ZN8QuantLib19SwapForwardMappings7annuityERKNS_10CurveStateEmmm.exit, label %for.body.i, !llvm.loop !12

_ZN8QuantLib19SwapForwardMappings7annuityERKNS_10CurveStateEmmm.exit: ; preds = %for.body.i
  %sub = fadd double %call, -1.000000e+00
  %5 = load ptr, ptr %rateTaus_.i.i, align 8, !tbaa !3
  %add.ptr.i = getelementptr inbounds nuw double, ptr %5, i64 %forwardIndex
  %6 = load double, ptr %add.ptr.i, align 8, !tbaa !8
  %vtable9 = load ptr, ptr %cs, align 8, !tbaa !10
  %vfn10 = getelementptr inbounds i8, ptr %vtable9, i64 24
  %7 = load ptr, ptr %vfn10, align 8
  %call11 = tail call noundef double %7(ptr noundef nonnull align 8 dereferenceable(64) %cs, i64 noundef %forwardIndex)
  %8 = tail call double @llvm.fmuladd.f64(double %6, double %call11, double 1.000000e+00)
  %div = fdiv double %6, %8
  %add = fadd double %sub, 1.000000e+00
  %mul = fmul double %add, %div
  %div12 = fdiv double %mul, %4
  %cmp15.not = icmp eq i64 %forwardIndex, 0
  br i1 %cmp15.not, label %if.end20, label %if.then16

if.then16:                                        ; preds = %_ZN8QuantLib19SwapForwardMappings7annuityERKNS_10CurveStateEmmm.exit
  %mul13 = fmul double %4, %4
  %div14 = fdiv double %sub, %mul13
  %cmp6.i26 = icmp ult i64 %startIndex, %forwardIndex
  br i1 %cmp6.i26, label %for.body.i30, label %_ZN8QuantLib19SwapForwardMappings7annuityERKNS_10CurveStateEmmm.exit39

for.body.i30:                                     ; preds = %if.then16, %for.body.i30
  %i.08.i31 = phi i64 [ %add.i34, %for.body.i30 ], [ %startIndex, %if.then16 ]
  %annuity.07.i32 = phi double [ %12, %for.body.i30 ], [ 0.000000e+00, %if.then16 ]
  %9 = load ptr, ptr %rateTaus_.i.i, align 8, !tbaa !3
  %add.ptr.i.i33 = getelementptr inbounds nuw double, ptr %9, i64 %i.08.i31
  %10 = load double, ptr %add.ptr.i.i33, align 8, !tbaa !8
  %add.i34 = add nuw i64 %i.08.i31, 1
  %vtable.i35 = load ptr, ptr %cs, align 8, !tbaa !10
  %vfn.i36 = getelementptr inbounds i8, ptr %vtable.i35, i64 16
  %11 = load ptr, ptr %vfn.i36, align 8
  %call2.i37 = tail call noundef double %11(ptr noundef nonnull align 8 dereferenceable(64) %cs, i64 noundef %add.i34, i64 noundef %endIndex)
  %12 = tail call double @llvm.fmuladd.f64(double %10, double %call2.i37, double %annuity.07.i32)
  %exitcond.not.i38 = icmp eq i64 %add.i34, %forwardIndex
  br i1 %exitcond.not.i38, label %_ZN8QuantLib19SwapForwardMappings7annuityERKNS_10CurveStateEmmm.exit39, label %for.body.i30, !llvm.loop !12

_ZN8QuantLib19SwapForwardMappings7annuityERKNS_10CurveStateEmmm.exit39: ; preds = %for.body.i30, %if.then16
  %annuity.0.lcssa.i27 = phi double [ 0.000000e+00, %if.then16 ], [ %12, %for.body.i30 ]
  %mul18 = fmul double %div, %annuity.0.lcssa.i27
  %mul19 = fmul double %div14, %mul18
  br label %if.end20

if.end20:                                         ; preds = %_ZN8QuantLib19SwapForwardMappings7annuityERKNS_10CurveStateEmmm.exit, %_ZN8QuantLib19SwapForwardMappings7annuityERKNS_10CurveStateEmmm.exit39
  %part2.0 = phi double [ %mul19, %_ZN8QuantLib19SwapForwardMappings7annuityERKNS_10CurveStateEmmm.exit39 ], [ 0.000000e+00, %_ZN8QuantLib19SwapForwardMappings7annuityERKNS_10CurveStateEmmm.exit ]
  %sub21 = fsub double %div12, %part2.0
  br label %return

return:                                           ; preds = %entry, %if.end20
  %retval.0 = phi double [ %sub21, %if.end20 ], [ 0.000000e+00, %entry ]
  ret double %retval.0
}